target datalayout = "e-m:e-p270:32:32-p271:32:32-p272:64:64-i64:64-i128:128-f80:128-n8:16:32:64-S128"
target triple = "x86_64-pc-linux-gnu"

%struct.AVFormatContext = type { ptr, ptr, ptr, ptr, ptr, i32, i32, ptr, i32, ptr, i32, ptr, ptr, i64, i64, i64, i32, i32, i32, i64, i64, ptr, i32, i32, ptr, i32, i32, i32, i32, ptr, i64, i32, i32, %struct.AVIOInterruptCB, i32, i32, i32, i32, i64, i32, i32, i32, i32, i32, i32, i32, i32, i32, i32, i32, i32, i64, i32, i32, i32, i32, i32, ptr, ptr, ptr, ptr, i32, ptr, ptr, ptr, ptr, i32, ptr, ptr, i64, ptr, ptr, ptr, i64 }
%struct.AVIOInterruptCB = type { ptr, ptr }
%struct.AVStream = type { ptr, i32, i32, ptr, ptr, %struct.AVRational, i64, i64, i64, i32, i32, %struct.AVRational, ptr, %struct.AVRational, %struct.AVPacket, i32, %struct.AVRational, i32 }
%struct.AVPacket = type { ptr, i64, i64, ptr, i32, i32, i32, ptr, i32, i64, i64, ptr, ptr, %struct.AVRational }
%struct.AVRational = type { i32, i32 }
%struct.AVCodecParameters = type { i32, i32, i32, ptr, i32, ptr, i32, i32, i64, i32, i32, i32, i32, i32, i32, %struct.AVRational, %struct.AVRational, i32, i32, i32, i32, i32, i32, i32, %struct.AVChannelLayout, i32, i32, i32, i32, i32, i32 }
%struct.AVChannelLayout = type { i32, i32, %union.anon.0, ptr }
%union.anon.0 = type { i64 }
%struct.FBDevContext = type { ptr, i32, i32, %struct.fb_var_screeninfo, %struct.fb_fix_screeninfo, i32, ptr }
%struct.fb_var_screeninfo = type { i32, i32, i32, i32, i32, i32, i32, i32, %struct.fb_bitfield, %struct.fb_bitfield, %struct.fb_bitfield, %struct.fb_bitfield, i32, i32, i32, i32, i32, i32, i32, i32, i32, i32, i32, i32, i32, i32, i32, i32, [4 x i32] }
%struct.fb_bitfield = type { i32, i32, i32 }
%struct.fb_fix_screeninfo = type { [16 x i8], i64, i32, i32, i32, i32, i16, i16, i16, i32, i64, i32, i32, i16, [2 x i16] }

@.str.9 = private unnamed_addr constant [42 x i8] c"Only a single video stream is supported.\0A\00", align 1
@.str.10 = private unnamed_addr constant [44 x i8] c"Could not open framebuffer device '%s': %s\0A\00", align 1
@.str.11 = private unnamed_addr constant [25 x i8] c"FBIOGET_VSCREENINFO: %s\0A\00", align 1
@.str.12 = private unnamed_addr constant [25 x i8] c"FBIOGET_FSCREENINFO: %s\0A\00", align 1
@.str.13 = private unnamed_addr constant [41 x i8] c"Framebuffer pixel format not supported.\0A\00", align 1
@.str.14 = private unnamed_addr constant [21 x i8] c"Error in mmap(): %s\0A\00", align 1

; Function Attrs: inlinehint nounwind uwtable
define internal ptr @av_make_error_string(ptr noundef %0, i64 noundef %1, i32 noundef %2) #5 {
  %4 = alloca ptr, align 8
  %5 = alloca i64, align 8
  %6 = alloca i32, align 4
  store ptr %0, ptr %4, align 8, !tbaa !44
  store i64 %1, ptr %5, align 8, !tbaa !72
  store i32 %2, ptr %6, align 4, !tbaa !27
  %7 = load i32, ptr %6, align 4, !tbaa !27
  %8 = load ptr, ptr %4, align 8, !tbaa !44
  %9 = load i64, ptr %5, align 8, !tbaa !72
  %10 = call i32 @av_strerror(i32 noundef %7, ptr noundef %8, i64 noundef %9)
  %11 = load ptr, ptr %4, align 8, !tbaa !44
  ret ptr %11
}

; Function Attrs: cold nounwind optsize uwtable
define internal i32 @fbdev_write_header(ptr noundef %0) #0 {
  %2 = alloca i32, align 4
  %3 = alloca ptr, align 8
  %4 = alloca ptr, align 8
  %5 = alloca i32, align 4
  %6 = alloca i32, align 4
  %7 = alloca i32, align 4
  %8 = alloca ptr, align 8
  %9 = alloca i32, align 4
  %10 = alloca [64 x i8], align 1
  %11 = alloca [64 x i8], align 1
  %12 = alloca [64 x i8], align 1
  %13 = alloca [64 x i8], align 1
  store ptr %0, ptr %3, align 8, !tbaa !4
  call void @llvm.lifetime.start.p0(i64 8, ptr %4) #9
  %14 = load ptr, ptr %3, align 8, !tbaa !4
  %15 = getelementptr inbounds nuw %struct.AVFormatContext, ptr %14, i32 0, i32 3
  %16 = load ptr, ptr %15, align 8, !tbaa !9
  store ptr %16, ptr %4, align 8, !tbaa !26
  call void @llvm.lifetime.start.p0(i64 4, ptr %5) #9
  call void @llvm.lifetime.start.p0(i64 4, ptr %6) #9
  call void @llvm.lifetime.start.p0(i64 4, ptr %7) #9
  store i32 2, ptr %7, align 4, !tbaa !27
  call void @llvm.lifetime.start.p0(i64 8, ptr %8) #9
  %17 = load ptr, ptr %3, align 8, !tbaa !4
  %18 = getelementptr inbounds nuw %struct.AVFormatContext, ptr %17, i32 0, i32 6
  %19 = load i32, ptr %18, align 4, !tbaa !28
  %20 = icmp ne i32 %19, 1
  br i1 %20, label %32, label %21

21:                                               ; preds = %1
  %22 = load ptr, ptr %3, align 8, !tbaa !4
  %23 = getelementptr inbounds nuw %struct.AVFormatContext, ptr %22, i32 0, i32 7
  %24 = load ptr, ptr %23, align 8, !tbaa !29
  %25 = getelementptr inbounds ptr, ptr %24, i64 0
  %26 = load ptr, ptr %25, align 8, !tbaa !30
  %27 = getelementptr inbounds nuw %struct.AVStream, ptr %26, i32 0, i32 3
  %28 = load ptr, ptr %27, align 8, !tbaa !32
  %29 = getelementptr inbounds nuw %struct.AVCodecParameters, ptr %28, i32 0, i32 0
  %30 = load i32, ptr %29, align 8, !tbaa !39
  %31 = icmp ne i32 %30, 0
  br i1 %31, label %32, label %34

32:                                               ; preds = %21, %1
  %33 = load ptr, ptr %4, align 8, !tbaa !26
  call void (ptr, i32, ptr, ...) @av_log(ptr noundef %33, i32 noundef 16, ptr noundef @.str.9)
  store i32 -22, ptr %2, align 4
  store i32 1, ptr %9, align 4
  br label %135

34:                                               ; preds = %21
  %35 = load ptr, ptr %3, align 8, !tbaa !4
  %36 = getelementptr inbounds nuw %struct.AVFormatContext, ptr %35, i32 0, i32 12
  %37 = load ptr, ptr %36, align 8, !tbaa !42
  %38 = getelementptr inbounds i8, ptr %37, i64 0
  %39 = load i8, ptr %38, align 1, !tbaa !43
  %40 = icmp ne i8 %39, 0
  br i1 %40, label %41, label %45

41:                                               ; preds = %34
  %42 = load ptr, ptr %3, align 8, !tbaa !4
  %43 = getelementptr inbounds nuw %struct.AVFormatContext, ptr %42, i32 0, i32 12
  %44 = load ptr, ptr %43, align 8, !tbaa !42
  store ptr %44, ptr %8, align 8, !tbaa !44
  br label %47

45:                                               ; preds = %34
  %46 = call ptr @ff_fbdev_default_device()
  store ptr %46, ptr %8, align 8, !tbaa !44
  br label %47

47:                                               ; preds = %45, %41
  %48 = load ptr, ptr %8, align 8, !tbaa !44
  %49 = load i32, ptr %7, align 4, !tbaa !27
  %50 = call i32 (ptr, i32, ...) @avpriv_open(ptr noundef %48, i32 noundef %49)
  %51 = load ptr, ptr %4, align 8, !tbaa !26
  %52 = getelementptr inbounds nuw %struct.FBDevContext, ptr %51, i32 0, i32 5
  store i32 %50, ptr %52, align 8, !tbaa !45
  %53 = icmp eq i32 %50, -1
  br i1 %53, label %54, label %64

54:                                               ; preds = %47
  %55 = call ptr @__errno_location() #10
  %56 = load i32, ptr %55, align 4, !tbaa !27
  %57 = sub nsw i32 0, %56
  store i32 %57, ptr %6, align 4, !tbaa !27
  %58 = load ptr, ptr %3, align 8, !tbaa !4
  %59 = load ptr, ptr %8, align 8, !tbaa !44
  call void @llvm.memset.p0.i64(ptr align 1 %10, i8 0, i64 64, i1 false)
  %60 = getelementptr inbounds [64 x i8], ptr %10, i64 0, i64 0
  %61 = load i32, ptr %6, align 4, !tbaa !27
  %62 = call ptr @av_make_error_string(ptr noundef %60, i64 noundef 64, i32 noundef %61)
  call void (ptr, i32, ptr, ...) @av_log(ptr noundef %58, i32 noundef 16, ptr noundef @.str.10, ptr noundef %59, ptr noundef %62)
  %63 = load i32, ptr %6, align 4, !tbaa !27
  store i32 %63, ptr %2, align 4
  store i32 1, ptr %9, align 4
  br label %135

64:                                               ; preds = %47
  %65 = load ptr, ptr %4, align 8, !tbaa !26
  %66 = getelementptr inbounds nuw %struct.FBDevContext, ptr %65, i32 0, i32 5
  %67 = load i32, ptr %66, align 8, !tbaa !45
  %68 = load ptr, ptr %4, align 8, !tbaa !26
  %69 = getelementptr inbounds nuw %struct.FBDevContext, ptr %68, i32 0, i32 3
  %70 = call i32 (i32, i64, ...) @ioctl(i32 noundef %67, i64 noundef 17920, ptr noundef %69) #9
  %71 = icmp slt i32 %70, 0
  br i1 %71, label %72, label %80

72:                                               ; preds = %64
  %73 = call ptr @__errno_location() #10
  %74 = load i32, ptr %73, align 4, !tbaa !27
  %75 = sub nsw i32 0, %74
  store i32 %75, ptr %6, align 4, !tbaa !27
  %76 = load ptr, ptr %3, align 8, !tbaa !4
  call void @llvm.memset.p0.i64(ptr align 1 %11, i8 0, i64 64, i1 false)
  %77 = getelementptr inbounds [64 x i8], ptr %11, i64 0, i64 0
  %78 = load i32, ptr %6, align 4, !tbaa !27
  %79 = call ptr @av_make_error_string(ptr noundef %77, i64 noundef 64, i32 noundef %78)
  call void (ptr, i32, ptr, ...) @av_log(ptr noundef %76, i32 noundef 16, ptr noundef @.str.11, ptr noundef %79)
  br label %129

80:                                               ; preds = %64
  %81 = load ptr, ptr %4, align 8, !tbaa !26
  %82 = getelementptr inbounds nuw %struct.FBDevContext, ptr %81, i32 0, i32 5
  %83 = load i32, ptr %82, align 8, !tbaa !45
  %84 = load ptr, ptr %4, align 8, !tbaa !26
  %85 = getelementptr inbounds nuw %struct.FBDevContext, ptr %84, i32 0, i32 4
  %86 = call i32 (i32, i64, ...) @ioctl(i32 noundef %83, i64 noundef 17922, ptr noundef %85) #9
  %87 = icmp slt i32 %86, 0
  br i1 %87, label %88, label %96

88:                                               ; preds = %80
  %89 = call ptr @__errno_location() #10
  %90 = load i32, ptr %89, align 4, !tbaa !27
  %91 = sub nsw i32 0, %90
  store i32 %91, ptr %6, align 4, !tbaa !27
  %92 = load ptr, ptr %3, align 8, !tbaa !4
  call void @llvm.memset.p0.i64(ptr align 1 %12, i8 0, i64 64, i1 false)
  %93 = getelementptr inbounds [64 x i8], ptr %12, i64 0, i64 0
  %94 = load i32, ptr %6, align 4, !tbaa !27
  %95 = call ptr @av_make_error_string(ptr noundef %93, i64 noundef 64, i32 noundef %94)
  call void (ptr, i32, ptr, ...) @av_log(ptr noundef %92, i32 noundef 16, ptr noundef @.str.12, ptr noundef %95)
  br label %129

96:                                               ; preds = %80
  %97 = load ptr, ptr %4, align 8, !tbaa !26
  %98 = getelementptr inbounds nuw %struct.FBDevContext, ptr %97, i32 0, i32 3
  %99 = call i32 @ff_get_pixfmt_from_fb_varinfo(ptr noundef %98)
  store i32 %99, ptr %5, align 4, !tbaa !27
  %100 = load i32, ptr %5, align 4, !tbaa !27
  %101 = icmp eq i32 %100, -1
  br i1 %101, label %102, label %104

102:                                              ; preds = %96
  store i32 -22, ptr %6, align 4, !tbaa !27
  %103 = load ptr, ptr %3, align 8, !tbaa !4
  call void (ptr, i32, ptr, ...) @av_log(ptr noundef %103, i32 noundef 16, ptr noundef @.str.13)
  br label %129

104:                                              ; preds = %96
  %105 = load ptr, ptr %4, align 8, !tbaa !26
  %106 = getelementptr inbounds nuw %struct.FBDevContext, ptr %105, i32 0, i32 4
  %107 = getelementptr inbounds nuw %struct.fb_fix_screeninfo, ptr %106, i32 0, i32 2
  %108 = load i32, ptr %107, align 8, !tbaa !51
  %109 = zext i32 %108 to i64
  %110 = load ptr, ptr %4, align 8, !tbaa !26
  %111 = getelementptr inbounds nuw %struct.FBDevContext, ptr %110, i32 0, i32 5
  %112 = load i32, ptr %111, align 8, !tbaa !45
  %113 = call ptr @mmap64(ptr noundef null, i64 noundef %109, i32 noundef 2, i32 noundef 1, i32 noundef %112, i64 noundef 0) #9
  %114 = load ptr, ptr %4, align 8, !tbaa !26
  %115 = getelementptr inbounds nuw %struct.FBDevContext, ptr %114, i32 0, i32 6
  store ptr %113, ptr %115, align 8, !tbaa !52
  %116 = load ptr, ptr %4, align 8, !tbaa !26
  %117 = getelementptr inbounds nuw %struct.FBDevContext, ptr %116, i32 0, i32 6
  %118 = load ptr, ptr %117, align 8, !tbaa !52
  %119 = icmp eq ptr %118, inttoptr (i64 -1 to ptr)
  br i1 %119, label %120, label %128

120:                                              ; preds = %104
  %121 = call ptr @__errno_location() #10
  %122 = load i32, ptr %121, align 4, !tbaa !27
  %123 = sub nsw i32 0, %122
  store i32 %123, ptr %6, align 4, !tbaa !27
  %124 = load ptr, ptr %3, align 8, !tbaa !4
  call void @llvm.memset.p0.i64(ptr align 1 %13, i8 0, i64 64, i1 false)
  %125 = getelementptr inbounds [64 x i8], ptr %13, i64 0, i64 0
  %126 = load i32, ptr %6, align 4, !tbaa !27
  %127 = call ptr @av_make_error_string(ptr noundef %125, i64 noundef 64, i32 noundef %126)
  call void (ptr, i32, ptr, ...) @av_log(ptr noundef %124, i32 noundef 16, ptr noundef @.str.14, ptr noundef %127)
  br label %129

128:                                              ; preds = %104
  store i32 0, ptr %2, align 4
  store i32 1, ptr %9, align 4
  br label %135

129:                                              ; preds = %120, %102, %88, %72
  %130 = load ptr, ptr %4, align 8, !tbaa !26
  %131 = getelementptr inbounds nuw %struct.FBDevContext, ptr %130, i32 0, i32 5
  %132 = load i32, ptr %131, align 8, !tbaa !45
  %133 = call i32 @close(i32 noundef %132)
  %134 = load i32, ptr %6, align 4, !tbaa !27
  store i32 %134, ptr %2, align 4
  store i32 1, ptr %9, align 4
  br label %135

135:                                              ; preds = %129, %128, %54, %32
  call void @llvm.lifetime.end.p0(i64 8, ptr %8) #9
  call void @llvm.lifetime.end.p0(i64 4, ptr %7) #9
  call void @llvm.lifetime.end.p0(i64 4, ptr %6) #9
  call void @llvm.lifetime.end.p0(i64 4, ptr %5) #9
  call void @llvm.lifetime.end.p0(i64 8, ptr %4) #9
  %136 = load i32, ptr %2, align 4
  ret i32 %136
}