; Function Attrs: cold nounwind optsize uwtable
define internal range(i32 -2147483647, -2147483648) i32 @fbdev_write_header(ptr noundef %0) #0 {
  %2 = alloca [64 x i8], align 1
  %3 = alloca [64 x i8], align 1
  %4 = alloca [64 x i8], align 1
  %5 = alloca [64 x i8], align 1
  %6 = getelementptr inbounds nuw i8, ptr %0, i64 24
  %7 = load ptr, ptr %6, align 8, !tbaa !4
  %8 = getelementptr inbounds nuw i8, ptr %0, i64 44
  %9 = load i32, ptr %8, align 4, !tbaa !24
  %.not = icmp eq i32 %9, 1
  br i1 %.not, label %10, label %17

10:                                               ; preds = %1
  %11 = getelementptr inbounds nuw i8, ptr %0, i64 48
  %12 = load ptr, ptr %11, align 8, !tbaa !25
  %13 = load ptr, ptr %12, align 8, !tbaa !26
  %14 = getelementptr inbounds nuw i8, ptr %13, i64 16
  %15 = load ptr, ptr %14, align 8, !tbaa !28
  %16 = load i32, ptr %15, align 8, !tbaa !35
  %.not35 = icmp eq i32 %16, 0
  br i1 %.not35, label %18, label %17

17:                                               ; preds = %10, %1
  tail call void (ptr, i32, ptr, ...) @av_log(ptr noundef %7, i32 noundef 16, ptr noundef nonnull @.str.9) #8
  br label %72

18:                                               ; preds = %10
  %19 = getelementptr inbounds nuw i8, ptr %0, i64 88
  %20 = load ptr, ptr %19, align 8, !tbaa !38
  %21 = load i8, ptr %20, align 1, !tbaa !39
  %.not36 = icmp eq i8 %21, 0
  br i1 %.not36, label %22, label %24

22:                                               ; preds = %18
  %23 = tail call ptr @ff_fbdev_default_device() #8
  br label %24

24:                                               ; preds = %18, %22
  %.0 = phi ptr [ %23, %22 ], [ %20, %18 ]
  %25 = tail call i32 (ptr, i32, ...) @avpriv_open(ptr noundef %.0, i32 noundef 2) #8
  %26 = getelementptr inbounds nuw i8, ptr %7, i64 256
  store i32 %25, ptr %26, align 8, !tbaa !40
  %27 = icmp eq i32 %25, -1
  br i1 %27, label %28, label %33

28:                                               ; preds = %24
  %29 = tail call ptr @__errno_location() #9
  %30 = load i32, ptr %29, align 4, !tbaa !46
  %31 = sub nsw i32 0, %30
  call void @llvm.memset.p0.i64(ptr noundef nonnull align 1 dereferenceable(64) %2, i8 0, i64 64, i1 false)
  %32 = call i32 @av_strerror(i32 noundef range(i32 -2147483647, -2147483648) %31, ptr noundef nonnull %2, i64 noundef 64) #8
  call void (ptr, i32, ptr, ...) @av_log(ptr noundef nonnull %0, i32 noundef 16, ptr noundef nonnull @.str.10, ptr noundef %.0, ptr noundef nonnull %2) #8
  br label %72

33:                                               ; preds = %24
  %34 = getelementptr inbounds nuw i8, ptr %7, i64 16
  %35 = tail call i32 (i32, i64, ...) @ioctl(i32 noundef %25, i64 noundef 17920, ptr noundef nonnull %34) #8
  %36 = icmp slt i32 %35, 0
  br i1 %36, label %37, label %42

37:                                               ; preds = %33
  %38 = tail call ptr @__errno_location() #9
  %39 = load i32, ptr %38, align 4, !tbaa !46
  %40 = sub nsw i32 0, %39
  call void @llvm.memset.p0.i64(ptr noundef nonnull align 1 dereferenceable(64) %3, i8 0, i64 64, i1 false)
  %41 = call i32 @av_strerror(i32 noundef range(i32 -2147483647, -2147483648) %40, ptr noundef nonnull %3, i64 noundef 64) #8
  call void (ptr, i32, ptr, ...) @av_log(ptr noundef nonnull %0, i32 noundef 16, ptr noundef nonnull @.str.11, ptr noundef nonnull %3) #8
  br label %69

42:                                               ; preds = %33
  %43 = load i32, ptr %26, align 8, !tbaa !40
  %44 = getelementptr inbounds nuw i8, ptr %7, i64 176
  %45 = tail call i32 (i32, i64, ...) @ioctl(i32 noundef %43, i64 noundef 17922, ptr noundef nonnull %44) #8
  %46 = icmp slt i32 %45, 0
  br i1 %46, label %47, label %52

47:                                               ; preds = %42
  %48 = tail call ptr @__errno_location() #9
  %49 = load i32, ptr %48, align 4, !tbaa !46
  %50 = sub nsw i32 0, %49
  call void @llvm.memset.p0.i64(ptr noundef nonnull align 1 dereferenceable(64) %4, i8 0, i64 64, i1 false)
  %51 = call i32 @av_strerror(i32 noundef range(i32 -2147483647, -2147483648) %50, ptr noundef nonnull %4, i64 noundef 64) #8
  call void (ptr, i32, ptr, ...) @av_log(ptr noundef nonnull %0, i32 noundef 16, ptr noundef nonnull @.str.12, ptr noundef nonnull %4) #8
  br label %69

52:                                               ; preds = %42
  %53 = tail call i32 @ff_get_pixfmt_from_fb_varinfo(ptr noundef nonnull %34) #8
  %54 = icmp eq i32 %53, -1
  br i1 %54, label %55, label %56

55:                                               ; preds = %52
  tail call void (ptr, i32, ptr, ...) @av_log(ptr noundef nonnull %0, i32 noundef 16, ptr noundef nonnull @.str.13) #8
  br label %69

56:                                               ; preds = %52
  %57 = getelementptr inbounds nuw i8, ptr %7, i64 200
  %58 = load i32, ptr %57, align 8, !tbaa !47
  %59 = zext i32 %58 to i64
  %60 = load i32, ptr %26, align 8, !tbaa !40
  %61 = tail call ptr @mmap64(ptr noundef null, i64 noundef %59, i32 noundef 2, i32 noundef 1, i32 noundef %60, i64 noundef 0) #8
  %62 = getelementptr inbounds nuw i8, ptr %7, i64 264
  store ptr %61, ptr %62, align 8, !tbaa !48
  %63 = icmp eq ptr %61, inttoptr (i64 -1 to ptr)
  br i1 %63, label %64, label %72

64:                                               ; preds = %56
  %65 = tail call ptr @__errno_location() #9
  %66 = load i32, ptr %65, align 4, !tbaa !46
  %67 = sub nsw i32 0, %66
  call void @llvm.memset.p0.i64(ptr noundef nonnull align 1 dereferenceable(64) %5, i8 0, i64 64, i1 false)
  %68 = call i32 @av_strerror(i32 noundef range(i32 -2147483647, -2147483648) %67, ptr noundef nonnull %5, i64 noundef 64) #8
  call void (ptr, i32, ptr, ...) @av_log(ptr noundef nonnull %0, i32 noundef 16, ptr noundef nonnull @.str.14, ptr noundef nonnull %5) #8
  br label %69

69:                                               ; preds = %64, %55, %47, %37
  %.033 = phi i32 [ %40, %37 ], [ %50, %47 ], [ -22, %55 ], [ %67, %64 ]
  %70 = load i32, ptr %26, align 8, !tbaa !40
  %71 = call i32 @close(i32 noundef %70) #8
  br label %72

72:                                               ; preds = %56, %69, %28, %17
  %.032 = phi i32 [ -22, %17 ], [ %31, %28 ], [ %.033, %69 ], [ 0, %56 ]
  ret i32 %.032
}